target datalayout = "e-m:e-p270:32:32-p271:32:32-p272:64:64-i64:64-i128:128-f80:128-n8:16:32:64-S128"
target triple = "x86_64-pc-linux-gnu"

%"class.icu_77::MessagePattern" = type <{ %"class.icu_77::UObject", i32, [4 x i8], %"class.icu_77::UnicodeString", ptr, ptr, i32, [4 x i8], ptr, ptr, i32, i8, i8, i8, i8 }>
%"class.icu_77::UObject" = type { ptr }
%"class.icu_77::UnicodeString" = type { %"class.icu_77::Replaceable", %"union.icu_77::UnicodeString::StackBufferOrFields" }
%"class.icu_77::Replaceable" = type { %"class.icu_77::UObject" }
%"union.icu_77::UnicodeString::StackBufferOrFields" = type { %struct.anon.0, [32 x i8] }
%struct.anon.0 = type { i16, i32, i32, ptr }
%struct.anon = type { i16, [27 x i16] }
%"class.icu_77::MessagePatternList" = type { %"class.icu_77::MaybeStackArray" }
%"class.icu_77::MaybeStackArray" = type { ptr, i32, i8, [32 x %"class.icu_77::MessagePattern::Part"] }
%"class.icu_77::MessagePattern::Part" = type { i32, i32, i16, i16, i32 }

; Function Attrs: mustprogress nounwind uwtable
define noundef zeroext i1 @_ZNK6icu_7714MessagePattern4ParteqERKS1_(ptr noundef nonnull align 4 dereferenceable(16) %0, ptr noundef nonnull align 4 dereferenceable(16) %1) #5 align 2 {
  %3 = alloca i1, align 1
  %4 = alloca ptr, align 8
  %5 = alloca ptr, align 8
  store ptr %0, ptr %4, align 8, !tbaa !70
  store ptr %1, ptr %5, align 8, !tbaa !70
  %6 = load ptr, ptr %4, align 8
  %7 = load ptr, ptr %5, align 8, !tbaa !70
  %8 = icmp eq ptr %6, %7
  br i1 %8, label %9, label %10

9:                                                ; preds = %2
  store i1 true, ptr %3, align 1
  br label %51

10:                                               ; preds = %2
  %11 = getelementptr inbounds nuw %"class.icu_77::MessagePattern::Part", ptr %6, i32 0, i32 0
  %12 = load i32, ptr %11, align 4, !tbaa !71
  %13 = load ptr, ptr %5, align 8, !tbaa !70
  %14 = getelementptr inbounds nuw %"class.icu_77::MessagePattern::Part", ptr %13, i32 0, i32 0
  %15 = load i32, ptr %14, align 4, !tbaa !71
  %16 = icmp eq i32 %12, %15
  br i1 %16, label %17, label %49

17:                                               ; preds = %10
  %18 = getelementptr inbounds nuw %"class.icu_77::MessagePattern::Part", ptr %6, i32 0, i32 1
  %19 = load i32, ptr %18, align 4, !tbaa !75
  %20 = load ptr, ptr %5, align 8, !tbaa !70
  %21 = getelementptr inbounds nuw %"class.icu_77::MessagePattern::Part", ptr %20, i32 0, i32 1
  %22 = load i32, ptr %21, align 4, !tbaa !75
  %23 = icmp eq i32 %19, %22
  br i1 %23, label %24, label %49

24:                                               ; preds = %17
  %25 = getelementptr inbounds nuw %"class.icu_77::MessagePattern::Part", ptr %6, i32 0, i32 2
  %26 = load i16, ptr %25, align 4, !tbaa !76
  %27 = zext i16 %26 to i32
  %28 = load ptr, ptr %5, align 8, !tbaa !70
  %29 = getelementptr inbounds nuw %"class.icu_77::MessagePattern::Part", ptr %28, i32 0, i32 2
  %30 = load i16, ptr %29, align 4, !tbaa !76
  %31 = zext i16 %30 to i32
  %32 = icmp eq i32 %27, %31
  br i1 %32, label %33, label %49

33:                                               ; preds = %24
  %34 = getelementptr inbounds nuw %"class.icu_77::MessagePattern::Part", ptr %6, i32 0, i32 3
  %35 = load i16, ptr %34, align 2, !tbaa !77
  %36 = sext i16 %35 to i32
  %37 = load ptr, ptr %5, align 8, !tbaa !70
  %38 = getelementptr inbounds nuw %"class.icu_77::MessagePattern::Part", ptr %37, i32 0, i32 3
  %39 = load i16, ptr %38, align 2, !tbaa !77
  %40 = sext i16 %39 to i32
  %41 = icmp eq i32 %36, %40
  br i1 %41, label %42, label %49

42:                                               ; preds = %33
  %43 = getelementptr inbounds nuw %"class.icu_77::MessagePattern::Part", ptr %6, i32 0, i32 4
  %44 = load i32, ptr %43, align 4, !tbaa !83
  %45 = load ptr, ptr %5, align 8, !tbaa !70
  %46 = getelementptr inbounds nuw %"class.icu_77::MessagePattern::Part", ptr %45, i32 0, i32 4
  %47 = load i32, ptr %46, align 4, !tbaa !83
  %48 = icmp eq i32 %44, %47
  br label %49

49:                                               ; preds = %42, %33, %24, %17, %10
  %50 = phi i1 [ false, %33 ], [ false, %24 ], [ false, %17 ], [ false, %10 ], [ %48, %42 ]
  store i1 %50, ptr %3, align 1
  br label %51

51:                                               ; preds = %49, %9
  %52 = load i1, ptr %3, align 1
  ret i1 %52
}

; Function Attrs: inlinehint mustprogress nounwind uwtable
define linkonce_odr noundef ptr @_ZNK6icu_7713UnicodeString13getArrayStartEv(ptr noundef nonnull align 8 dereferenceable(64) %0) #1 comdat align 2 {
  %2 = alloca ptr, align 8
  store ptr %0, ptr %2, align 8, !tbaa !33
  %3 = load ptr, ptr %2, align 8
  %4 = getelementptr inbounds nuw %"class.icu_77::UnicodeString", ptr %3, i32 0, i32 1
  %5 = getelementptr inbounds nuw %struct.anon.0, ptr %4, i32 0, i32 0
  %6 = load i16, ptr %5, align 8, !tbaa !35
  %7 = sext i16 %6 to i32
  %8 = and i32 %7, 2
  %9 = icmp ne i32 %8, 0
  br i1 %9, label %10, label %14

10:                                               ; preds = %1
  %11 = getelementptr inbounds nuw %"class.icu_77::UnicodeString", ptr %3, i32 0, i32 1
  %12 = getelementptr inbounds nuw %struct.anon, ptr %11, i32 0, i32 1
  %13 = getelementptr inbounds [27 x i16], ptr %12, i64 0, i64 0
  br label %18

14:                                               ; preds = %1
  %15 = getelementptr inbounds nuw %"class.icu_77::UnicodeString", ptr %3, i32 0, i32 1
  %16 = getelementptr inbounds nuw %struct.anon.0, ptr %15, i32 0, i32 3
  %17 = load ptr, ptr %16, align 8, !tbaa !35
  br label %18

18:                                               ; preds = %14, %10
  %19 = phi ptr [ %13, %10 ], [ %17, %14 ]
  ret ptr %19
}

; Function Attrs: inlinehint mustprogress nounwind uwtable
define linkonce_odr noundef i32 @_ZNK6icu_7713UnicodeString14getShortLengthEv(ptr noundef nonnull align 8 dereferenceable(64) %0) #1 comdat align 2 {
  %2 = alloca ptr, align 8
  store ptr %0, ptr %2, align 8, !tbaa !33
  %3 = load ptr, ptr %2, align 8
  %4 = getelementptr inbounds nuw %"class.icu_77::UnicodeString", ptr %3, i32 0, i32 1
  %5 = getelementptr inbounds nuw %struct.anon.0, ptr %4, i32 0, i32 0
  %6 = load i16, ptr %5, align 8, !tbaa !35
  %7 = sext i16 %6 to i32
  %8 = ashr i32 %7, 5
  ret i32 %8
}

; Function Attrs: inlinehint mustprogress nounwind uwtable
define linkonce_odr noundef signext i8 @_ZNK6icu_7713UnicodeString14hasShortLengthEv(ptr noundef nonnull align 8 dereferenceable(64) %0) #1 comdat align 2 {
  %2 = alloca ptr, align 8
  store ptr %0, ptr %2, align 8, !tbaa !33
  %3 = load ptr, ptr %2, align 8
  %4 = getelementptr inbounds nuw %"class.icu_77::UnicodeString", ptr %3, i32 0, i32 1
  %5 = getelementptr inbounds nuw %struct.anon.0, ptr %4, i32 0, i32 0
  %6 = load i16, ptr %5, align 8, !tbaa !35
  %7 = sext i16 %6 to i32
  %8 = icmp sge i32 %7, 0
  %9 = zext i1 %8 to i8
  ret i8 %9
}

; Function Attrs: inlinehint mustprogress nounwind uwtable
define linkonce_odr noundef zeroext i1 @_ZNK6icu_7714MessagePattern4PartneERKS1_(ptr noundef nonnull align 4 dereferenceable(16) %0, ptr noundef nonnull align 4 dereferenceable(16) %1) #1 comdat align 2 {
  %3 = alloca ptr, align 8
  %4 = alloca ptr, align 8
  store ptr %0, ptr %3, align 8, !tbaa !70
  store ptr %1, ptr %4, align 8, !tbaa !70
  %5 = load ptr, ptr %3, align 8
  %6 = load ptr, ptr %4, align 8, !tbaa !70
  %7 = call noundef zeroext i1 @_ZNK6icu_7714MessagePattern4ParteqERKS1_(ptr noundef nonnull align 4 dereferenceable(16) %5, ptr noundef nonnull align 4 dereferenceable(16) %6)
  %8 = xor i1 %7, true
  ret i1 %8
}

; Function Attrs: mustprogress nounwind uwtable
define linkonce_odr noundef nonnull align 4 dereferenceable(16) ptr @_ZNK6icu_7715MaybeStackArrayINS_14MessagePattern4PartELi32EEixEl(ptr noundef nonnull align 8 dereferenceable(528) %0, i64 noundef %1) #5 comdat align 2 {
  %3 = alloca ptr, align 8
  %4 = alloca i64, align 8
  store ptr %0, ptr %3, align 8, !tbaa !42
  store i64 %1, ptr %4, align 8, !tbaa !87
  %5 = load ptr, ptr %3, align 8
  %6 = getelementptr inbounds nuw %"class.icu_77::MaybeStackArray", ptr %5, i32 0, i32 0
  %7 = load ptr, ptr %6, align 8, !tbaa !44
  %8 = load i64, ptr %4, align 8, !tbaa !87
  %9 = getelementptr inbounds %"class.icu_77::MessagePattern::Part", ptr %7, i64 %8
  ret ptr %9
}

; Function Attrs: inlinehint mustprogress uwtable
define linkonce_odr noundef signext i8 @_ZNK6icu_7713UnicodeString8doEqualsERKS0_i(ptr noundef nonnull align 8 dereferenceable(64) %0, ptr noundef nonnull align 8 dereferenceable(64) %1, i32 noundef %2) #2 comdat align 2 {
  %4 = alloca ptr, align 8
  %5 = alloca ptr, align 8
  %6 = alloca i32, align 4
  store ptr %0, ptr %4, align 8, !tbaa !33
  store ptr %1, ptr %5, align 8, !tbaa !33
  store i32 %2, ptr %6, align 4, !tbaa !48
  %7 = load ptr, ptr %4, align 8
  %8 = load ptr, ptr %5, align 8, !tbaa !33
  %9 = call noundef ptr @_ZNK6icu_7713UnicodeString13getArrayStartEv(ptr noundef nonnull align 8 dereferenceable(64) %8)
  %10 = load i32, ptr %6, align 4, !tbaa !48
  %11 = call noundef signext i8 @_ZNK6icu_7713UnicodeString8doEqualsEPKDsi(ptr noundef nonnull align 8 dereferenceable(64) %7, ptr noundef %9, i32 noundef %10)
  ret i8 %11
}

; Function Attrs: inlinehint mustprogress uwtable
define linkonce_odr noundef i32 @_ZNK6icu_7713UnicodeString6lengthEv(ptr noundef nonnull align 8 dereferenceable(64) %0) #2 comdat align 2 {
  %2 = alloca ptr, align 8
  store ptr %0, ptr %2, align 8, !tbaa !33
  %3 = load ptr, ptr %2, align 8
  %4 = call noundef signext i8 @_ZNK6icu_7713UnicodeString14hasShortLengthEv(ptr noundef nonnull align 8 dereferenceable(64) %3)
  %5 = icmp ne i8 %4, 0
  br i1 %5, label %6, label %8

6:                                                ; preds = %1
  %7 = call noundef i32 @_ZNK6icu_7713UnicodeString14getShortLengthEv(ptr noundef nonnull align 8 dereferenceable(64) %3)
  br label %12

8:                                                ; preds = %1
  %9 = getelementptr inbounds nuw %"class.icu_77::UnicodeString", ptr %3, i32 0, i32 1
  %10 = getelementptr inbounds nuw %struct.anon.0, ptr %9, i32 0, i32 1
  %11 = load i32, ptr %10, align 4, !tbaa !35
  br label %12

12:                                               ; preds = %8, %6
  %13 = phi i32 [ %7, %6 ], [ %11, %8 ]
  ret i32 %13
}

; Function Attrs: inlinehint mustprogress nounwind uwtable
define linkonce_odr noundef signext i8 @_ZNK6icu_7713UnicodeString7isBogusEv(ptr noundef nonnull align 8 dereferenceable(64) %0) #1 comdat align 2 {
  %2 = alloca ptr, align 8
  store ptr %0, ptr %2, align 8, !tbaa !33
  %3 = load ptr, ptr %2, align 8
  %4 = getelementptr inbounds nuw %"class.icu_77::UnicodeString", ptr %3, i32 0, i32 1
  %5 = getelementptr inbounds nuw %struct.anon.0, ptr %4, i32 0, i32 0
  %6 = load i16, ptr %5, align 8, !tbaa !35
  %7 = sext i16 %6 to i32
  %8 = and i32 %7, 1
  %9 = trunc i32 %8 to i8
  ret i8 %9
}

; Function Attrs: mustprogress uwtable
define linkonce_odr noundef signext i8 @_ZNK6icu_7718MessagePatternListINS_14MessagePattern4PartELi32EE6equalsERKS3_i(ptr noundef nonnull align 8 dereferenceable(528) %0, ptr noundef nonnull align 8 dereferenceable(528) %1, i32 noundef %2) #0 comdat align 2 {
  %4 = alloca i8, align 1
  %5 = alloca ptr, align 8
  %6 = alloca ptr, align 8
  %7 = alloca i32, align 4
  %8 = alloca i32, align 4
  %9 = alloca i32, align 4
  store ptr %0, ptr %5, align 8, !tbaa !46
  store ptr %1, ptr %6, align 8, !tbaa !46
  store i32 %2, ptr %7, align 4, !tbaa !48
  %10 = load ptr, ptr %5, align 8
  call void @llvm.lifetime.start.p0(i64 4, ptr %8) #12
  store i32 0, ptr %8, align 4, !tbaa !48
  br label %11

11:                                               ; preds = %29, %3
  %12 = load i32, ptr %8, align 4, !tbaa !48
  %13 = load i32, ptr %7, align 4, !tbaa !48
  %14 = icmp slt i32 %12, %13
  br i1 %14, label %16, label %15

15:                                               ; preds = %11
  store i32 2, ptr %9, align 4
  br label %32

16:                                               ; preds = %11
  %17 = getelementptr inbounds nuw %"class.icu_77::MessagePatternList", ptr %10, i32 0, i32 0
  %18 = load i32, ptr %8, align 4, !tbaa !48
  %19 = sext i32 %18 to i64
  %20 = call noundef nonnull align 4 dereferenceable(16) ptr @_ZNK6icu_7715MaybeStackArrayINS_14MessagePattern4PartELi32EEixEl(ptr noundef nonnull align 8 dereferenceable(528) %17, i64 noundef %19)
  %21 = load ptr, ptr %6, align 8, !tbaa !46
  %22 = getelementptr inbounds nuw %"class.icu_77::MessagePatternList", ptr %21, i32 0, i32 0
  %23 = load i32, ptr %8, align 4, !tbaa !48
  %24 = sext i32 %23 to i64
  %25 = call noundef nonnull align 4 dereferenceable(16) ptr @_ZNK6icu_7715MaybeStackArrayINS_14MessagePattern4PartELi32EEixEl(ptr noundef nonnull align 8 dereferenceable(528) %22, i64 noundef %24)
  %26 = call noundef zeroext i1 @_ZNK6icu_7714MessagePattern4PartneERKS1_(ptr noundef nonnull align 4 dereferenceable(16) %20, ptr noundef nonnull align 4 dereferenceable(16) %25)
  br i1 %26, label %27, label %28

27:                                               ; preds = %16
  store i8 0, ptr %4, align 1
  store i32 1, ptr %9, align 4
  br label %32

28:                                               ; preds = %16
  br label %29

29:                                               ; preds = %28
  %30 = load i32, ptr %8, align 4, !tbaa !48
  %31 = add nsw i32 %30, 1
  store i32 %31, ptr %8, align 4, !tbaa !48
  br label %11, !llvm.loop !68

32:                                               ; preds = %27, %15
  call void @llvm.lifetime.end.p0(i64 4, ptr %8) #12
  %33 = load i32, ptr %9, align 4
  switch i32 %33, label %37 [
    i32 2, label %34
    i32 1, label %35
  ]

34:                                               ; preds = %32
  store i8 1, ptr %4, align 1
  br label %35

35:                                               ; preds = %34, %32
  %36 = load i8, ptr %4, align 1
  ret i8 %36

37:                                               ; preds = %32
  unreachable
}

; Function Attrs: inlinehint mustprogress uwtable
define linkonce_odr noundef zeroext i1 @_ZNK6icu_7713UnicodeStringeqERKS0_(ptr noundef nonnull align 8 dereferenceable(64) %0, ptr noundef nonnull align 8 dereferenceable(64) %1) #2 comdat align 2 {
  %3 = alloca i1, align 1
  %4 = alloca ptr, align 8
  %5 = alloca ptr, align 8
  %6 = alloca i32, align 4
  %7 = alloca i32, align 4
  store ptr %0, ptr %4, align 8, !tbaa !33
  store ptr %1, ptr %5, align 8, !tbaa !33
  %8 = load ptr, ptr %4, align 8
  %9 = call noundef signext i8 @_ZNK6icu_7713UnicodeString7isBogusEv(ptr noundef nonnull align 8 dereferenceable(64) %8)
  %10 = icmp ne i8 %9, 0
  br i1 %10, label %11, label %15

11:                                               ; preds = %2
  %12 = load ptr, ptr %5, align 8, !tbaa !33
  %13 = call noundef signext i8 @_ZNK6icu_7713UnicodeString7isBogusEv(ptr noundef nonnull align 8 dereferenceable(64) %12)
  %14 = icmp ne i8 %13, 0
  store i1 %14, ptr %3, align 1
  br label %33

15:                                               ; preds = %2
  call void @llvm.lifetime.start.p0(i64 4, ptr %6) #12
  %16 = call noundef i32 @_ZNK6icu_7713UnicodeString6lengthEv(ptr noundef nonnull align 8 dereferenceable(64) %8)
  store i32 %16, ptr %6, align 4, !tbaa !48
  call void @llvm.lifetime.start.p0(i64 4, ptr %7) #12
  %17 = load ptr, ptr %5, align 8, !tbaa !33
  %18 = call noundef i32 @_ZNK6icu_7713UnicodeString6lengthEv(ptr noundef nonnull align 8 dereferenceable(64) %17)
  store i32 %18, ptr %7, align 4, !tbaa !48
  %19 = load ptr, ptr %5, align 8, !tbaa !33
  %20 = call noundef signext i8 @_ZNK6icu_7713UnicodeString7isBogusEv(ptr noundef nonnull align 8 dereferenceable(64) %19)
  %21 = icmp ne i8 %20, 0
  br i1 %21, label %31, label %22

22:                                               ; preds = %15
  %23 = load i32, ptr %6, align 4, !tbaa !48
  %24 = load i32, ptr %7, align 4, !tbaa !48
  %25 = icmp eq i32 %23, %24
  br i1 %25, label %26, label %31

26:                                               ; preds = %22
  %27 = load ptr, ptr %5, align 8, !tbaa !33
  %28 = load i32, ptr %6, align 4, !tbaa !48
  %29 = call noundef signext i8 @_ZNK6icu_7713UnicodeString8doEqualsERKS0_i(ptr noundef nonnull align 8 dereferenceable(64) %8, ptr noundef nonnull align 8 dereferenceable(64) %27, i32 noundef %28)
  %30 = icmp ne i8 %29, 0
  br label %31

31:                                               ; preds = %26, %22, %15
  %32 = phi i1 [ false, %22 ], [ false, %15 ], [ %30, %26 ]
  store i1 %32, ptr %3, align 1
  call void @llvm.lifetime.end.p0(i64 4, ptr %7) #12
  call void @llvm.lifetime.end.p0(i64 4, ptr %6) #12
  br label %33

33:                                               ; preds = %31, %11
  %34 = load i1, ptr %3, align 1
  ret i1 %34
}

; Function Attrs: mustprogress uwtable
define noundef zeroext i1 @_ZNK6icu_7714MessagePatterneqERKS0_(ptr noundef nonnull align 8 dereferenceable(127) %0, ptr noundef nonnull align 8 dereferenceable(127) %1) #0 align 2 {
  %3 = alloca i1, align 1
  %4 = alloca ptr, align 8
  %5 = alloca ptr, align 8
  store ptr %0, ptr %4, align 8, !tbaa !3
  store ptr %1, ptr %5, align 8, !tbaa !3
  %6 = load ptr, ptr %4, align 8
  %7 = load ptr, ptr %5, align 8, !tbaa !3
  %8 = icmp eq ptr %6, %7
  br i1 %8, label %9, label %10

9:                                                ; preds = %2
  store i1 true, ptr %3, align 1
  br label %47

10:                                               ; preds = %2
  %11 = getelementptr inbounds nuw %"class.icu_77::MessagePattern", ptr %6, i32 0, i32 1
  %12 = load i32, ptr %11, align 8, !tbaa !11
  %13 = load ptr, ptr %5, align 8, !tbaa !3
  %14 = getelementptr inbounds nuw %"class.icu_77::MessagePattern", ptr %13, i32 0, i32 1
  %15 = load i32, ptr %14, align 8, !tbaa !11
  %16 = icmp eq i32 %12, %15
  br i1 %16, label %17, label %45

17:                                               ; preds = %10
  %18 = getelementptr inbounds nuw %"class.icu_77::MessagePattern", ptr %6, i32 0, i32 3
  %19 = load ptr, ptr %5, align 8, !tbaa !3
  %20 = getelementptr inbounds nuw %"class.icu_77::MessagePattern", ptr %19, i32 0, i32 3
  %21 = call noundef zeroext i1 @_ZNK6icu_7713UnicodeStringeqERKS0_(ptr noundef nonnull align 8 dereferenceable(64) %18, ptr noundef nonnull align 8 dereferenceable(64) %20)
  br i1 %21, label %22, label %45

22:                                               ; preds = %17
  %23 = getelementptr inbounds nuw %"class.icu_77::MessagePattern", ptr %6, i32 0, i32 6
  %24 = load i32, ptr %23, align 8, !tbaa !24
  %25 = load ptr, ptr %5, align 8, !tbaa !3
  %26 = getelementptr inbounds nuw %"class.icu_77::MessagePattern", ptr %25, i32 0, i32 6
  %27 = load i32, ptr %26, align 8, !tbaa !24
  %28 = icmp eq i32 %24, %27
  br i1 %28, label %29, label %45

29:                                               ; preds = %22
  %30 = getelementptr inbounds nuw %"class.icu_77::MessagePattern", ptr %6, i32 0, i32 6
  %31 = load i32, ptr %30, align 8, !tbaa !24
  %32 = icmp eq i32 %31, 0
  br i1 %32, label %43, label %33

33:                                               ; preds = %29
  %34 = getelementptr inbounds nuw %"class.icu_77::MessagePattern", ptr %6, i32 0, i32 4
  %35 = load ptr, ptr %34, align 8, !tbaa !22
  %36 = load ptr, ptr %5, align 8, !tbaa !3
  %37 = getelementptr inbounds nuw %"class.icu_77::MessagePattern", ptr %36, i32 0, i32 4
  %38 = load ptr, ptr %37, align 8, !tbaa !22
  %39 = getelementptr inbounds nuw %"class.icu_77::MessagePattern", ptr %6, i32 0, i32 6
  %40 = load i32, ptr %39, align 8, !tbaa !24
  %41 = call noundef signext i8 @_ZNK6icu_7718MessagePatternListINS_14MessagePattern4PartELi32EE6equalsERKS3_i(ptr noundef nonnull align 8 dereferenceable(528) %35, ptr noundef nonnull align 8 dereferenceable(528) %38, i32 noundef %40)
  %42 = icmp ne i8 %41, 0
  br label %43

43:                                               ; preds = %33, %29
  %44 = phi i1 [ true, %29 ], [ %42, %33 ]
  br label %45

45:                                               ; preds = %43, %22, %17, %10
  %46 = phi i1 [ false, %22 ], [ false, %17 ], [ false, %10 ], [ %44, %43 ]
  store i1 %46, ptr %3, align 1
  br label %47

47:                                               ; preds = %45, %9
  %48 = load i1, ptr %3, align 1
  ret i1 %48
}