; Function Attrs: mustprogress uwtable
define noundef zeroext i1 @_ZNK6icu_7714MessagePatterneqERKS0_(ptr noundef nonnull align 8 dereferenceable(127) %0, ptr noundef nonnull align 8 dereferenceable(127) %1) local_unnamed_addr #2 align 2 {
  %3 = icmp eq ptr %0, %1
  br i1 %3, label %_ZNK6icu_7713UnicodeStringeqERKS0_.exit.thread, label %4

4:                                                ; preds = %2
  %5 = getelementptr inbounds nuw i8, ptr %0, i64 8
  %6 = load i32, ptr %5, align 8, !tbaa !6
  %7 = getelementptr inbounds nuw i8, ptr %1, i64 8
  %8 = load i32, ptr %7, align 8, !tbaa !6
  %9 = icmp eq i32 %6, %8
  br i1 %9, label %10, label %_ZNK6icu_7713UnicodeStringeqERKS0_.exit.thread

10:                                               ; preds = %4
  %11 = getelementptr inbounds nuw i8, ptr %0, i64 16
  %12 = getelementptr inbounds nuw i8, ptr %0, i64 24
  %13 = load i16, ptr %12, align 8, !tbaa !19
  %14 = and i16 %13, 1
  %.not.i = icmp eq i16 %14, 0
  br i1 %.not.i, label %19, label %15

15:                                               ; preds = %10
  %16 = getelementptr inbounds nuw i8, ptr %1, i64 24
  %17 = load i16, ptr %16, align 8, !tbaa !19
  %18 = and i16 %17, 1
  %.not = icmp eq i16 %18, 0
  br i1 %.not, label %_ZNK6icu_7713UnicodeStringeqERKS0_.exit.thread, label %42

19:                                               ; preds = %10
  %20 = icmp slt i16 %13, 0
  %21 = ashr i16 %13, 5
  %22 = sext i16 %21 to i32
  %23 = getelementptr inbounds nuw i8, ptr %0, i64 28
  %24 = load i32, ptr %23, align 4
  %25 = select i1 %20, i32 %24, i32 %22
  %26 = getelementptr inbounds nuw i8, ptr %1, i64 24
  %27 = load i16, ptr %26, align 8, !tbaa !19
  %28 = icmp slt i16 %27, 0
  %29 = ashr i16 %27, 5
  %30 = sext i16 %29 to i32
  %31 = getelementptr inbounds nuw i8, ptr %1, i64 28
  %32 = load i32, ptr %31, align 4
  %33 = select i1 %28, i32 %32, i32 %30
  %34 = and i16 %27, 1
  %.not9.i = icmp eq i16 %34, 0
  %35 = icmp eq i32 %25, %33
  %or.cond.i = and i1 %.not9.i, %35
  br i1 %or.cond.i, label %_ZNK6icu_7713UnicodeStringeqERKS0_.exit, label %_ZNK6icu_7713UnicodeStringeqERKS0_.exit.thread

_ZNK6icu_7713UnicodeStringeqERKS0_.exit:          ; preds = %19
  %36 = and i16 %27, 2
  %.not.i.i.i = icmp eq i16 %36, 0
  %37 = getelementptr inbounds nuw i8, ptr %1, i64 26
  %38 = getelementptr inbounds nuw i8, ptr %1, i64 40
  %39 = load ptr, ptr %38, align 8
  %40 = select i1 %.not.i.i.i, ptr %39, ptr %37
  %41 = tail call noundef signext i8 @_ZNK6icu_7713UnicodeString8doEqualsEPKDsi(ptr noundef nonnull align 8 dereferenceable(64) %11, ptr noundef %40, i32 noundef %25)
  %.not12 = icmp eq i8 %41, 0
  br i1 %.not12, label %_ZNK6icu_7713UnicodeStringeqERKS0_.exit.thread, label %42

42:                                               ; preds = %15, %_ZNK6icu_7713UnicodeStringeqERKS0_.exit
  %43 = getelementptr inbounds nuw i8, ptr %0, i64 96
  %44 = load i32, ptr %43, align 8, !tbaa !32
  %45 = getelementptr inbounds nuw i8, ptr %1, i64 96
  %46 = load i32, ptr %45, align 8, !tbaa !32
  %47 = icmp eq i32 %44, %46
  br i1 %47, label %48, label %_ZNK6icu_7713UnicodeStringeqERKS0_.exit.thread

48:                                               ; preds = %42
  %.not1314.i = icmp slt i32 %44, 1
  br i1 %.not1314.i, label %_ZNK6icu_7713UnicodeStringeqERKS0_.exit.thread, label %.lr.ph.i

.lr.ph.i:                                         ; preds = %48
  %49 = getelementptr inbounds nuw i8, ptr %1, i64 80
  %50 = load ptr, ptr %49, align 8, !tbaa !22
  %51 = getelementptr inbounds nuw i8, ptr %0, i64 80
  %52 = load ptr, ptr %51, align 8, !tbaa !22
  %53 = load ptr, ptr %52, align 8, !tbaa !23
  %54 = load ptr, ptr %50, align 8, !tbaa !23
  %55 = icmp eq ptr %53, %54
  br i1 %55, label %_ZNK6icu_7713UnicodeStringeqERKS0_.exit.thread, label %.lr.ph.split.preheader.i

.lr.ph.split.preheader.i:                         ; preds = %.lr.ph.i
  %wide.trip.count.i = zext nneg i32 %44 to i64
  br label %.lr.ph.split.i

.lr.ph.split.i:                                   ; preds = %_ZNK6icu_7714MessagePattern4PartneERKS1_.exit.thread11.i, %.lr.ph.split.preheader.i
  %indvars.iv.i = phi i64 [ 0, %.lr.ph.split.preheader.i ], [ %indvars.iv.next.i, %_ZNK6icu_7714MessagePattern4PartneERKS1_.exit.thread11.i ]
  %56 = getelementptr inbounds nuw %"class.icu_77::MessagePattern::Part", ptr %53, i64 %indvars.iv.i
  %57 = getelementptr inbounds nuw %"class.icu_77::MessagePattern::Part", ptr %54, i64 %indvars.iv.i
  %58 = load i32, ptr %56, align 4, !tbaa !44
  %59 = load i32, ptr %57, align 4, !tbaa !44
  %60 = icmp eq i32 %58, %59
  br i1 %60, label %61, label %_ZNK6icu_7713UnicodeStringeqERKS0_.exit.thread

61:                                               ; preds = %.lr.ph.split.i
  %62 = getelementptr inbounds nuw i8, ptr %56, i64 4
  %63 = load i32, ptr %62, align 4, !tbaa !48
  %64 = getelementptr inbounds nuw i8, ptr %57, i64 4
  %65 = load i32, ptr %64, align 4, !tbaa !48
  %66 = icmp eq i32 %63, %65
  br i1 %66, label %67, label %_ZNK6icu_7713UnicodeStringeqERKS0_.exit.thread

67:                                               ; preds = %61
  %68 = getelementptr inbounds nuw i8, ptr %56, i64 8
  %69 = load i16, ptr %68, align 4, !tbaa !49
  %70 = getelementptr inbounds nuw i8, ptr %57, i64 8
  %71 = load i16, ptr %70, align 4, !tbaa !49
  %72 = icmp eq i16 %69, %71
  br i1 %72, label %73, label %_ZNK6icu_7713UnicodeStringeqERKS0_.exit.thread

73:                                               ; preds = %67
  %74 = getelementptr inbounds nuw i8, ptr %56, i64 10
  %75 = load i16, ptr %74, align 2, !tbaa !50
  %76 = getelementptr inbounds nuw i8, ptr %57, i64 10
  %77 = load i16, ptr %76, align 2, !tbaa !50
  %78 = icmp eq i16 %75, %77
  br i1 %78, label %_ZNK6icu_7714MessagePattern4PartneERKS1_.exit.i, label %_ZNK6icu_7713UnicodeStringeqERKS0_.exit.thread

_ZNK6icu_7714MessagePattern4PartneERKS1_.exit.i:  ; preds = %73
  %79 = getelementptr inbounds nuw i8, ptr %56, i64 12
  %80 = load i32, ptr %79, align 4, !tbaa !51
  %81 = getelementptr inbounds nuw i8, ptr %57, i64 12
  %82 = load i32, ptr %81, align 4, !tbaa !51
  %.not.i10 = icmp eq i32 %80, %82
  br i1 %.not.i10, label %_ZNK6icu_7714MessagePattern4PartneERKS1_.exit.thread11.i, label %_ZNK6icu_7713UnicodeStringeqERKS0_.exit.thread

_ZNK6icu_7714MessagePattern4PartneERKS1_.exit.thread11.i: ; preds = %_ZNK6icu_7714MessagePattern4PartneERKS1_.exit.i
  %indvars.iv.next.i = add nuw nsw i64 %indvars.iv.i, 1
  %exitcond.not.i = icmp eq i64 %indvars.iv.next.i, %wide.trip.count.i
  br i1 %exitcond.not.i, label %_ZNK6icu_7713UnicodeStringeqERKS0_.exit.thread, label %.lr.ph.split.i, !llvm.loop !58

_ZNK6icu_7713UnicodeStringeqERKS0_.exit.thread:   ; preds = %_ZNK6icu_7714MessagePattern4PartneERKS1_.exit.thread11.i, %_ZNK6icu_7714MessagePattern4PartneERKS1_.exit.i, %73, %67, %61, %.lr.ph.split.i, %.lr.ph.i, %19, %15, %4, %_ZNK6icu_7713UnicodeStringeqERKS0_.exit, %42, %48, %2
  %.0 = phi i1 [ true, %2 ], [ false, %42 ], [ false, %_ZNK6icu_7713UnicodeStringeqERKS0_.exit ], [ false, %4 ], [ true, %48 ], [ false, %15 ], [ false, %19 ], [ true, %.lr.ph.i ], [ true, %_ZNK6icu_7714MessagePattern4PartneERKS1_.exit.thread11.i ], [ false, %_ZNK6icu_7714MessagePattern4PartneERKS1_.exit.i ], [ false, %73 ], [ false, %67 ], [ false, %61 ], [ false, %.lr.ph.split.i ]
  ret i1 %.0
}